target datalayout = "e-m:e-p270:32:32-p271:32:32-p272:64:64-i64:64-i128:128-f80:128-n8:16:32:64-S128"
target triple = "x86_64-pc-linux-gnu"

%struct.VMAFMotionData = type { [5 x i16], i32, i32, i64, [2 x ptr], ptr, double, i64, %struct.VMAFMotionDSPContext }
%struct.VMAFMotionDSPContext = type { ptr, ptr, ptr }
%struct.AVFrame = type { [8 x ptr], [8 x i32], ptr, i32, i32, i32, i32, i32, %struct.AVRational, i64, i64, %struct.AVRational, i32, ptr, i32, i32, [8 x ptr], ptr, i32, ptr, i32, i32, i32, i32, i32, i32, i32, i64, ptr, i32, ptr, ptr, i64, i64, i64, i64, ptr, %struct.AVChannelLayout, i64 }
%struct.AVRational = type { i32, i32 }
%struct.AVChannelLayout = type { i32, i32, %union.anon, ptr }
%union.anon = type { i64 }
%struct.AVFilterContext = type { ptr, ptr, ptr, ptr, ptr, i32, ptr, ptr, i32, ptr, ptr, i32, i32, ptr, ptr, ptr, ptr, i32, ptr, i32, i32 }
%struct.VMAFMotionContext = type { ptr, %struct.VMAFMotionData, ptr, ptr }
%struct.AVFilterLink = type { ptr, ptr, ptr, ptr, i32, i32, i32, i32, %struct.AVRational, i32, i32, i32, %struct.AVChannelLayout, %struct.AVRational, ptr, i32, %struct.AVFilterFormatsConfig, %struct.AVFilterFormatsConfig }
%struct.AVFilterFormatsConfig = type { ptr, ptr, ptr, ptr, ptr }

@.str.3 = private unnamed_addr constant [23 x i8] c"lavfi.vmafmotion.score\00", align 1
@.str.4 = private unnamed_addr constant [21 x i8] c"n:%ld motion:%0.2lf\0A\00", align 1
@.str.5 = private unnamed_addr constant [6 x i8] c"%0.2f\00", align 1

; Function Attrs: nounwind uwtable
define internal void @set_meta(ptr noundef %0, ptr noundef %1, float noundef %2) #0 {
  %4 = alloca ptr, align 8
  %5 = alloca ptr, align 8
  %6 = alloca float, align 4
  %7 = alloca [128 x i8], align 16
  store ptr %0, ptr %4, align 8, !tbaa !118
  store ptr %1, ptr %5, align 8, !tbaa !18
  store float %2, ptr %6, align 4, !tbaa !34
  call void @llvm.lifetime.start.p0(i64 128, ptr %7) #10
  %8 = getelementptr inbounds [128 x i8], ptr %7, i64 0, i64 0
  %9 = load float, ptr %6, align 4, !tbaa !34
  %10 = fpext nsz float %9 to double
  %11 = call i32 (ptr, i64, ptr, ...) @snprintf(ptr noundef %8, i64 noundef 128, ptr noundef @.str.5, double noundef %10) #10
  %12 = load ptr, ptr %4, align 8, !tbaa !118
  %13 = load ptr, ptr %5, align 8, !tbaa !18
  %14 = getelementptr inbounds [128 x i8], ptr %7, i64 0, i64 0
  %15 = call i32 @av_dict_set(ptr noundef %12, ptr noundef %13, ptr noundef %14, i32 noundef 0)
  call void @llvm.lifetime.end.p0(i64 128, ptr %7) #10
  ret void
}

; Function Attrs: nounwind uwtable
define internal void @do_vmafmotion(ptr noundef %0, ptr noundef %1) #0 {
  %3 = alloca ptr, align 8
  %4 = alloca ptr, align 8
  %5 = alloca ptr, align 8
  %6 = alloca double, align 8
  store ptr %0, ptr %3, align 8, !tbaa !47
  store ptr %1, ptr %4, align 8, !tbaa !9
  call void @llvm.lifetime.start.p0(i64 8, ptr %5) #10
  %7 = load ptr, ptr %3, align 8, !tbaa !47
  %8 = getelementptr inbounds nuw %struct.AVFilterContext, ptr %7, i32 0, i32 9
  %9 = load ptr, ptr %8, align 8, !tbaa !49
  store ptr %9, ptr %5, align 8, !tbaa !60
  call void @llvm.lifetime.start.p0(i64 8, ptr %6) #10
  %10 = load ptr, ptr %5, align 8, !tbaa !60
  %11 = getelementptr inbounds nuw %struct.VMAFMotionContext, ptr %10, i32 0, i32 1
  %12 = load ptr, ptr %4, align 8, !tbaa !9
  %13 = call nsz double @ff_vmafmotion_process(ptr noundef %11, ptr noundef %12)
  store double %13, ptr %6, align 8, !tbaa !28
  %14 = load ptr, ptr %4, align 8, !tbaa !9
  %15 = getelementptr inbounds nuw %struct.AVFrame, ptr %14, i32 0, i32 28
  %16 = load double, ptr %6, align 8, !tbaa !28
  %17 = fptrunc nsz double %16 to float
  call void @set_meta(ptr noundef %15, ptr noundef @.str.3, float noundef %17)
  %18 = load ptr, ptr %5, align 8, !tbaa !60
  %19 = getelementptr inbounds nuw %struct.VMAFMotionContext, ptr %18, i32 0, i32 2
  %20 = load ptr, ptr %19, align 8, !tbaa !66
  %21 = icmp ne ptr %20, null
  br i1 %21, label %22, label %32

22:                                               ; preds = %2
  %23 = load ptr, ptr %5, align 8, !tbaa !60
  %24 = getelementptr inbounds nuw %struct.VMAFMotionContext, ptr %23, i32 0, i32 2
  %25 = load ptr, ptr %24, align 8, !tbaa !66
  %26 = load ptr, ptr %5, align 8, !tbaa !60
  %27 = getelementptr inbounds nuw %struct.VMAFMotionContext, ptr %26, i32 0, i32 1
  %28 = getelementptr inbounds nuw %struct.VMAFMotionData, ptr %27, i32 0, i32 7
  %29 = load i64, ptr %28, align 8, !tbaa !67
  %30 = load double, ptr %6, align 8, !tbaa !28
  %31 = call i32 (ptr, ptr, ...) @fprintf(ptr noundef %25, ptr noundef @.str.4, i64 noundef %29, double noundef %30) #10
  br label %32

32:                                               ; preds = %22, %2
  call void @llvm.lifetime.end.p0(i64 8, ptr %6) #10
  call void @llvm.lifetime.end.p0(i64 8, ptr %5) #10
  ret void
}

; Function Attrs: nounwind uwtable
define internal i32 @filter_frame(ptr noundef %0, ptr noundef %1) #0 {
  %3 = alloca ptr, align 8
  %4 = alloca ptr, align 8
  %5 = alloca ptr, align 8
  store ptr %0, ptr %3, align 8, !tbaa !104
  store ptr %1, ptr %4, align 8, !tbaa !9
  call void @llvm.lifetime.start.p0(i64 8, ptr %5) #10
  %6 = load ptr, ptr %3, align 8, !tbaa !104
  %7 = getelementptr inbounds nuw %struct.AVFilterLink, ptr %6, i32 0, i32 2
  %8 = load ptr, ptr %7, align 8, !tbaa !106
  store ptr %8, ptr %5, align 8, !tbaa !47
  %9 = load ptr, ptr %5, align 8, !tbaa !47
  %10 = load ptr, ptr %4, align 8, !tbaa !9
  call void @do_vmafmotion(ptr noundef %9, ptr noundef %10)
  %11 = load ptr, ptr %5, align 8, !tbaa !47
  %12 = getelementptr inbounds nuw %struct.AVFilterContext, ptr %11, i32 0, i32 7
  %13 = load ptr, ptr %12, align 8, !tbaa !113
  %14 = getelementptr inbounds ptr, ptr %13, i64 0
  %15 = load ptr, ptr %14, align 8, !tbaa !104
  %16 = load ptr, ptr %4, align 8, !tbaa !9
  %17 = call i32 @ff_filter_frame(ptr noundef %15, ptr noundef %16)
  call void @llvm.lifetime.end.p0(i64 8, ptr %5) #10
  ret i32 %17
}