; Function Attrs: nounwind uwtable
define internal i32 @filter_frame(ptr noundef readonly captures(none) %0, ptr noundef %1) #0 {
  %3 = alloca [128 x i8], align 16
  %4 = getelementptr inbounds nuw i8, ptr %0, i64 16
  %5 = load ptr, ptr %4, align 8, !tbaa !88
  %6 = getelementptr i8, ptr %5, i64 72
  %.val = load ptr, ptr %6, align 8, !tbaa !37
  %7 = getelementptr inbounds nuw i8, ptr %.val, i64 8
  %8 = tail call nsz double @ff_vmafmotion_process(ptr noundef nonnull %7, ptr noundef %1)
  %9 = getelementptr inbounds nuw i8, ptr %1, i64 312
  %10 = fptrunc nsz double %8 to float
  call void @llvm.lifetime.start.p0(i64 128, ptr nonnull %3) #10
  %11 = fpext nsz float %10 to double
  %12 = call i32 (ptr, i64, ptr, ...) @snprintf(ptr noundef nonnull dereferenceable(1) %3, i64 noundef 128, ptr noundef nonnull @.str.5, double noundef %11) #10
  %13 = call i32 @av_dict_set(ptr noundef nonnull %9, ptr noundef nonnull @.str.3, ptr noundef nonnull %3, i32 noundef 0) #10
  call void @llvm.lifetime.end.p0(i64 128, ptr nonnull %3) #10
  %14 = getelementptr inbounds nuw i8, ptr %.val, i64 104
  %15 = load ptr, ptr %14, align 8, !tbaa !52
  %.not.i = icmp eq ptr %15, null
  br i1 %.not.i, label %do_vmafmotion.exit, label %16

16:                                               ; preds = %2
  %17 = getelementptr inbounds nuw i8, ptr %.val, i64 72
  %18 = load i64, ptr %17, align 8, !tbaa !53
  %19 = call i32 (ptr, ptr, ...) @fprintf(ptr noundef nonnull %15, ptr noundef nonnull @.str.4, i64 noundef %18, double noundef %8) #10
  br label %do_vmafmotion.exit

do_vmafmotion.exit:                               ; preds = %2, %16
  %20 = getelementptr inbounds nuw i8, ptr %5, i64 56
  %21 = load ptr, ptr %20, align 8, !tbaa !96
  %22 = load ptr, ptr %21, align 8, !tbaa !97
  %23 = call i32 @ff_filter_frame(ptr noundef %22, ptr noundef nonnull %1) #10
  ret i32 %23
}